; ModuleID = '52/509.c'
source_filename = "52/509.c"
target datalayout = "e-m:e-p270:32:32-p271:32:32-p272:64:64-i64:64-f80:128-n8:16:32:64-S128"
target triple = "x86_64-pc-linux-gnu"

@.str = private unnamed_addr constant [6 x i8] c"%d %d\00", align 1
@.str.1 = private unnamed_addr constant [3 x i8] c"%d\00", align 1
@.str.2 = private unnamed_addr constant [4 x i8] c" %d\00", align 1

; Function Attrs: noinline nounwind uwtable
define dso_local i32 @main(i32 %0, i8** %1) #0 {
  %3 = alloca i32, align 4
  %4 = alloca i32, align 4
  %5 = alloca i8**, align 8
  %6 = alloca i32, align 4
  %7 = alloca i32, align 4
  %8 = alloca i32, align 4
  %9 = alloca [100 x i32], align 16
  %10 = alloca i32*, align 8
  store i32 0, i32* %3, align 4
  store i32 %0, i32* %4, align 4
  store i8** %1, i8*** %5, align 8
  %11 = call i32 (i8*, ...) @__isoc99_scanf(i8* getelementptr inbounds ([6 x i8], [6 x i8]* @.str, i64 0, i64 0), i32* %6, i32* %7)
  store i32 1, i32* %8, align 4
  br label %12

12:                                               ; preds = %21, %2
  %13 = load i32, i32* %8, align 4
  %14 = load i32, i32* %6, align 4
  %15 = icmp sle i32 %13, %14
  br i1 %15, label %16, label %24

16:                                               ; preds = %12
  %17 = load i32, i32* %8, align 4
  %18 = sext i32 %17 to i64
  %19 = getelementptr inbounds [100 x i32], [100 x i32]* %9, i64 0, i64 %18
  %20 = call i32 (i8*, ...) @__isoc99_scanf(i8* getelementptr inbounds ([3 x i8], [3 x i8]* @.str.1, i64 0, i64 0), i32* %19)
  br label %21

21:                                               ; preds = %16
  %22 = load i32, i32* %8, align 4
  %23 = add nsw i32 %22, 1
  store i32 %23, i32* %8, align 4
  br label %12

24:                                               ; preds = %12
  %25 = load i32, i32* %6, align 4
  %26 = sext i32 %25 to i64
  %27 = getelementptr inbounds [100 x i32], [100 x i32]* %9, i64 0, i64 %26
  store i32* %27, i32** %10, align 8
  store i32 1, i32* %8, align 4
  br label %28

28:                                               ; preds = %40, %24
  %29 = load i32, i32* %8, align 4
  %30 = load i32, i32* %6, align 4
  %31 = icmp sle i32 %29, %30
  br i1 %31, label %32, label %43

32:                                               ; preds = %28
  %33 = load i32*, i32** %10, align 8
  %34 = getelementptr inbounds i32, i32* %33, i32 1
  store i32* %34, i32** %10, align 8
  %35 = load i32, i32* %8, align 4
  %36 = sext i32 %35 to i64
  %37 = getelementptr inbounds [100 x i32], [100 x i32]* %9, i64 0, i64 %36
  %38 = load i32, i32* %37, align 4
  %39 = load i32*, i32** %10, align 8
  store i32 %38, i32* %39, align 4
  br label %40

40:                                               ; preds = %32
  %41 = load i32, i32* %8, align 4
  %42 = add nsw i32 %41, 1
  store i32 %42, i32* %8, align 4
  br label %28

43:                                               ; preds = %28
  %44 = load i32, i32* %6, align 4
  %45 = load i32, i32* %7, align 4
  %46 = sub nsw i32 %44, %45
  %47 = add nsw i32 %46, 1
  %48 = sext i32 %47 to i64
  %49 = getelementptr inbounds [100 x i32], [100 x i32]* %9, i64 0, i64 %48
  %50 = load i32, i32* %49, align 4
  %51 = call i32 (i8*, ...) @printf(i8* getelementptr inbounds ([3 x i8], [3 x i8]* @.str.1, i64 0, i64 0), i32 %50)
  %52 = load i32, i32* %6, align 4
  %53 = load i32, i32* %7, align 4
  %54 = sub nsw i32 %52, %53
  %55 = add nsw i32 %54, 2
  store i32 %55, i32* %8, align 4
  br label %56

56:                                               ; preds = %69, %43
  %57 = load i32, i32* %8, align 4
  %58 = load i32, i32* %6, align 4
  %59 = mul nsw i32 2, %58
  %60 = load i32, i32* %7, align 4
  %61 = sub nsw i32 %59, %60
  %62 = icmp sle i32 %57, %61
  br i1 %62, label %63, label %72

63:                                               ; preds = %56
  %64 = load i32, i32* %8, align 4
  %65 = sext i32 %64 to i64
  %66 = getelementptr inbounds [100 x i32], [100 x i32]* %9, i64 0, i64 %65
  %67 = load i32, i32* %66, align 4
  %68 = call i32 (i8*, ...) @printf(i8* getelementptr inbounds ([4 x i8], [4 x i8]* @.str.2, i64 0, i64 0), i32 %67)
  br label %69

69:                                               ; preds = %63
  %70 = load i32, i32* %8, align 4
  %71 = add nsw i32 %70, 1
  store i32 %71, i32* %8, align 4
  br label %56

72:                                               ; preds = %56
  ret i32 0
}

declare dso_local i32 @__isoc99_scanf(i8*, ...) #1

declare dso_local i32 @printf(i8*, ...) #1


!llvm.module.flags = !{!0}
!llvm.ident = !{!1}

!0 = !{i32 1, !"wchar_size", i32 4}
!1 = !{!"clang version 10.0.0-4ubuntu1 "}
